#include <math.h>
#include <stdio.h>
#include <stdlib.h>
#include <string.h>

int main()
{
	int a[101][101],b[101][101],c[101][101]={0},i,j,k,x1,y1,x2,y2;
	scanf("%d %d",&x1,&y1);
	for(i=0;i<x1;i++)
	{
		for(j=0;j<y1;j++)
			scanf("%d",&a[i][j]);
	}
	scanf("%d %d",&x2,&y2);
	for(i=0;i<x2;i++)
	{
		for(j=0;j<y2;j++)
			scanf("%d",&b[i][j]);
	}
	for(i=0;i<x1;i++)
	{
		for(j=0;j<y2-1;j++)
		{
			for(k=0;k<y1;k++)
				c[i][j]=c[i][j]+a[i][k]*b[k][j];
			printf("%d ",c[i][j]);
		}
		for(k=0;k<y1;k++)	c[i][y2-1]=c[i][y2-1]+a[i][k]*b[k][y2-1];
		printf("%d\n",c[i][y2-1]);
	}
	return 0;
}



